target datalayout = "e-m:e-p270:32:32-p271:32:32-p272:64:64-i64:64-i128:128-f80:128-n8:16:32:64-S128"
target triple = "x86_64-pc-linux-gnu"

%struct.ForEachState = type { ptr, i32 }
%struct.List = type { i32, i32, i32, ptr, [0 x %union.ListCell] }
%union.ListCell = type { ptr }
%struct.Expr = type { i32 }
%struct.TargetEntry = type { %struct.Expr, ptr, i16, ptr, i32, i32, i16, i8 }
%struct.SortGroupClause = type { i32, i32, i32, i32, i8, i8, i8 }

; Function Attrs: nounwind uwtable
define dso_local zeroext i1 @targetIsInSortList(ptr noundef %0, i32 noundef %1, ptr noundef %2) #0 {
  %4 = alloca i1, align 1
  %5 = alloca ptr, align 8
  %6 = alloca i32, align 4
  %7 = alloca ptr, align 8
  %8 = alloca i32, align 4
  %9 = alloca ptr, align 8
  %10 = alloca i32, align 4
  %11 = alloca %struct.ForEachState, align 8
  %12 = alloca ptr, align 8
  store ptr %0, ptr %5, align 8
  store i32 %1, ptr %6, align 4
  store ptr %2, ptr %7, align 8
  call void @llvm.lifetime.start.p0(i64 4, ptr %8) #8
  %13 = load ptr, ptr %5, align 8
  %14 = getelementptr inbounds nuw %struct.TargetEntry, ptr %13, i32 0, i32 4
  %15 = load i32, ptr %14, align 8
  store i32 %15, ptr %8, align 4
  call void @llvm.lifetime.start.p0(i64 8, ptr %9) #8
  %16 = load i32, ptr %8, align 4
  %17 = icmp eq i32 %16, 0
  br i1 %17, label %18, label %19

18:                                               ; preds = %3
  store i1 false, ptr %4, align 1
  store i32 1, ptr %10, align 4
  br label %86

19:                                               ; preds = %3
  call void @llvm.lifetime.start.p0(i64 16, ptr %11) #8
  %20 = getelementptr inbounds nuw %struct.ForEachState, ptr %11, i32 0, i32 0
  %21 = load ptr, ptr %7, align 8
  store ptr %21, ptr %20, align 8
  %22 = getelementptr inbounds nuw %struct.ForEachState, ptr %11, i32 0, i32 1
  store i32 0, ptr %22, align 8
  %23 = getelementptr i8, ptr %11, i64 12
  call void @llvm.memset.p0.i64(ptr align 4 %23, i8 0, i64 4, i1 false)
  br label %24

24:                                               ; preds = %79, %19
  %25 = getelementptr inbounds nuw %struct.ForEachState, ptr %11, i32 0, i32 0
  %26 = load ptr, ptr %25, align 8
  %27 = icmp ne ptr %26, null
  br i1 %27, label %28, label %45

28:                                               ; preds = %24
  %29 = getelementptr inbounds nuw %struct.ForEachState, ptr %11, i32 0, i32 1
  %30 = load i32, ptr %29, align 8
  %31 = getelementptr inbounds nuw %struct.ForEachState, ptr %11, i32 0, i32 0
  %32 = load ptr, ptr %31, align 8
  %33 = getelementptr inbounds nuw %struct.List, ptr %32, i32 0, i32 1
  %34 = load i32, ptr %33, align 4
  %35 = icmp slt i32 %30, %34
  br i1 %35, label %36, label %45

36:                                               ; preds = %28
  %37 = getelementptr inbounds nuw %struct.ForEachState, ptr %11, i32 0, i32 0
  %38 = load ptr, ptr %37, align 8
  %39 = getelementptr inbounds nuw %struct.List, ptr %38, i32 0, i32 3
  %40 = load ptr, ptr %39, align 8
  %41 = getelementptr inbounds nuw %struct.ForEachState, ptr %11, i32 0, i32 1
  %42 = load i32, ptr %41, align 8
  %43 = sext i32 %42 to i64
  %44 = getelementptr inbounds %union.ListCell, ptr %40, i64 %43
  store ptr %44, ptr %9, align 8
  br label %46

45:                                               ; preds = %28, %24
  store ptr null, ptr %9, align 8
  br label %46

46:                                               ; preds = %45, %36
  %47 = phi i32 [ 1, %36 ], [ 0, %45 ]
  %48 = icmp ne i32 %47, 0
  br i1 %48, label %50, label %49

49:                                               ; preds = %46
  store i32 2, ptr %10, align 4
  br label %83

50:                                               ; preds = %46
  call void @llvm.lifetime.start.p0(i64 8, ptr %12) #8
  %51 = load ptr, ptr %9, align 8
  %52 = load ptr, ptr %51, align 8
  store ptr %52, ptr %12, align 8
  %53 = load ptr, ptr %12, align 8
  %54 = getelementptr inbounds nuw %struct.SortGroupClause, ptr %53, i32 0, i32 1
  %55 = load i32, ptr %54, align 4
  %56 = load i32, ptr %8, align 4
  %57 = icmp eq i32 %55, %56
  br i1 %57, label %58, label %75

58:                                               ; preds = %50
  %59 = load i32, ptr %6, align 4
  %60 = icmp eq i32 %59, 0
  br i1 %60, label %74, label %61

61:                                               ; preds = %58
  %62 = load i32, ptr %6, align 4
  %63 = load ptr, ptr %12, align 8
  %64 = getelementptr inbounds nuw %struct.SortGroupClause, ptr %63, i32 0, i32 3
  %65 = load i32, ptr %64, align 4
  %66 = icmp eq i32 %62, %65
  br i1 %66, label %74, label %67

67:                                               ; preds = %61
  %68 = load i32, ptr %6, align 4
  %69 = load ptr, ptr %12, align 8
  %70 = getelementptr inbounds nuw %struct.SortGroupClause, ptr %69, i32 0, i32 3
  %71 = load i32, ptr %70, align 4
  %72 = call i32 @get_commutator(i32 noundef %71)
  %73 = icmp eq i32 %68, %72
  br i1 %73, label %74, label %75

74:                                               ; preds = %67, %61, %58
  store i1 true, ptr %4, align 1
  store i32 1, ptr %10, align 4
  br label %76

75:                                               ; preds = %67, %50
  store i32 0, ptr %10, align 4
  br label %76

76:                                               ; preds = %75, %74
  call void @llvm.lifetime.end.p0(i64 8, ptr %12) #8
  %77 = load i32, ptr %10, align 4
  switch i32 %77, label %83 [
    i32 0, label %78
  ]

78:                                               ; preds = %76
  br label %79

79:                                               ; preds = %78
  %80 = getelementptr inbounds nuw %struct.ForEachState, ptr %11, i32 0, i32 1
  %81 = load i32, ptr %80, align 8
  %82 = add i32 %81, 1
  store i32 %82, ptr %80, align 8
  br label %24, !llvm.loop !37

83:                                               ; preds = %76, %49
  call void @llvm.lifetime.end.p0(i64 16, ptr %11) #8
  %84 = load i32, ptr %10, align 4
  switch i32 %84, label %86 [
    i32 2, label %85
  ]

85:                                               ; preds = %83
  store i1 false, ptr %4, align 1
  store i32 1, ptr %10, align 4
  br label %86

86:                                               ; preds = %85, %83, %18
  call void @llvm.lifetime.end.p0(i64 8, ptr %9) #8
  call void @llvm.lifetime.end.p0(i64 4, ptr %8) #8
  %87 = load i1, ptr %4, align 1
  ret i1 %87
}