; Function Attrs: nounwind uwtable
define dso_local noundef zeroext i1 @targetIsInSortList(ptr noundef readonly captures(none) %0, i32 noundef %1, ptr noundef readonly captures(address_is_null) %2) local_unnamed_addr #0 {
  %4 = getelementptr inbounds nuw i8, ptr %0, i64 32
  %5 = load i32, ptr %4, align 8
  %6 = icmp eq i32 %5, 0
  br i1 %6, label %.thread30, label %.preheader

.preheader:                                       ; preds = %3
  %7 = getelementptr inbounds nuw i8, ptr %2, i64 4
  %.not = icmp eq ptr %2, null
  br i1 %.not, label %.thread30, label %.lr.ph

.lr.ph:                                           ; preds = %.preheader
  %8 = getelementptr inbounds nuw i8, ptr %2, i64 16
  %9 = icmp eq i32 %1, 0
  %10 = load i32, ptr %7, align 4
  %11 = icmp sgt i32 %10, 0
  br i1 %9, label %.lr.ph.split.us.split, label %.lr.ph.split.split

.lr.ph.split.us.split:                            ; preds = %.lr.ph
  br i1 %11, label %.critedge.us.lr.ph, label %.thread30

.critedge.us.lr.ph:                               ; preds = %.lr.ph.split.us.split
  %12 = load ptr, ptr %8, align 8
  %wide.trip.count = zext nneg i32 %10 to i64
  br label %.critedge.us

.critedge.us:                                     ; preds = %.critedge.us, %.critedge.us.lr.ph
  %indvars.iv61 = phi i64 [ 0, %.critedge.us.lr.ph ], [ %indvars.iv.next62, %.critedge.us ]
  %13 = getelementptr inbounds nuw %union.ListCell, ptr %12, i64 %indvars.iv61
  %14 = load ptr, ptr %13, align 8
  %15 = getelementptr inbounds nuw i8, ptr %14, i64 4
  %16 = load i32, ptr %15, align 4
  %17 = icmp eq i32 %16, %5
  %indvars.iv.next62 = add nuw nsw i64 %indvars.iv61, 1
  %exitcond.not = icmp eq i64 %indvars.iv.next62, %wide.trip.count
  %or.cond = select i1 %17, i1 true, i1 %exitcond.not
  br i1 %or.cond, label %.thread30, label %.critedge.us

.lr.ph.split.split:                               ; preds = %.lr.ph
  br i1 %11, label %.lr.ph52, label %.thread30

.lr.ph52:                                         ; preds = %.lr.ph.split.split, %.critedge
  %18 = phi i32 [ %32, %.critedge ], [ %10, %.lr.ph.split.split ]
  %indvars.iv = phi i64 [ %indvars.iv.next, %.critedge ], [ 0, %.lr.ph.split.split ]
  %19 = load ptr, ptr %8, align 8
  %20 = getelementptr inbounds nuw %union.ListCell, ptr %19, i64 %indvars.iv
  %21 = load ptr, ptr %20, align 8
  %22 = getelementptr inbounds nuw i8, ptr %21, i64 4
  %23 = load i32, ptr %22, align 4
  %24 = icmp eq i32 %23, %5
  br i1 %24, label %25, label %.critedge

25:                                               ; preds = %.lr.ph52
  %26 = getelementptr inbounds nuw i8, ptr %21, i64 12
  %27 = load i32, ptr %26, align 4
  %28 = icmp eq i32 %1, %27
  br i1 %28, label %.thread30, label %29

29:                                               ; preds = %25
  %30 = tail call i32 @get_commutator(i32 noundef %27) #9
  %31 = icmp eq i32 %1, %30
  br i1 %31, label %.thread30, label %..critedge_crit_edge

..critedge_crit_edge:                             ; preds = %29
  %.pre = load i32, ptr %7, align 4
  br label %.critedge

.critedge:                                        ; preds = %..critedge_crit_edge, %.lr.ph52
  %32 = phi i32 [ %.pre, %..critedge_crit_edge ], [ %18, %.lr.ph52 ]
  %indvars.iv.next = add nuw nsw i64 %indvars.iv, 1
  %33 = sext i32 %32 to i64
  %34 = icmp slt i64 %indvars.iv.next, %33
  br i1 %34, label %.lr.ph52, label %.thread30

.thread30:                                        ; preds = %.critedge, %29, %25, %.critedge.us, %.preheader, %.lr.ph.split.split, %.lr.ph.split.us.split, %3
  %.0 = phi i1 [ false, %3 ], [ false, %.preheader ], [ false, %.lr.ph.split.us.split ], [ false, %.lr.ph.split.split ], [ %17, %.critedge.us ], [ false, %.critedge ], [ true, %29 ], [ true, %25 ]
  ret i1 %.0
}